target datalayout = "e-m:e-p270:32:32-p271:32:32-p272:64:64-i64:64-i128:128-f80:128-n8:16:32:64-S128"
target triple = "x86_64-pc-linux-gnu"

%"struct.cv::SimpleBlobDetector::Params" = type <{ float, float, float, [4 x i8], i64, float, i8, i8, i8, i8, float, float, i8, [3 x i8], float, float, i8, [3 x i8], float, float, i8, [3 x i8], float, float, i8, [3 x i8] }>
%"class.cv::SimpleBlobDetectorImpl" = type { %"class.cv::SimpleBlobDetector", %"struct.cv::SimpleBlobDetector::Params", %"class.std::vector" }
%"class.cv::SimpleBlobDetector" = type { %"class.cv::Feature2D" }
%"class.cv::Feature2D" = type { %"class.cv::Algorithm" }
%"class.cv::Algorithm" = type { ptr }
%"class.std::vector" = type { %"struct.std::_Vector_base" }
%"struct.std::_Vector_base" = type { %"struct.std::_Vector_base<std::vector<cv::Point_<int>>, std::allocator<std::vector<cv::Point_<int>>>>::_Vector_impl" }
%"struct.std::_Vector_base<std::vector<cv::Point_<int>>, std::allocator<std::vector<cv::Point_<int>>>>::_Vector_impl" = type { %"struct.std::_Vector_base<std::vector<cv::Point_<int>>, std::allocator<std::vector<cv::Point_<int>>>>::_Vector_impl_data" }
%"struct.std::_Vector_base<std::vector<cv::Point_<int>>, std::allocator<std::vector<cv::Point_<int>>>>::_Vector_impl_data" = type { ptr, ptr, ptr }

; Function Attrs: mustprogress uwtable
define void @_ZNK2cv22SimpleBlobDetectorImpl5writeERNS_11FileStorageE(ptr noundef nonnull align 8 dereferenceable(112) %0, ptr noundef nonnull align 8 dereferenceable(64) %1) unnamed_addr #4 align 2 {
  %3 = alloca ptr, align 8
  %4 = alloca ptr, align 8
  store ptr %0, ptr %3, align 8
  store ptr %1, ptr %4, align 8
  %5 = load ptr, ptr %3, align 8
  %6 = load ptr, ptr %5, align 8
  %7 = getelementptr i8, ptr %6, i64 -80
  %8 = load i64, ptr %7, align 8
  %9 = getelementptr inbounds i8, ptr %5, i64 %8
  %10 = load ptr, ptr %4, align 8
  call void @_ZNK2cv9Algorithm11writeFormatERNS_11FileStorageE(ptr noundef nonnull align 8 dereferenceable(8) %9, ptr noundef nonnull align 8 dereferenceable(64) %10)
  %11 = getelementptr inbounds %"class.cv::SimpleBlobDetectorImpl", ptr %5, i32 0, i32 1
  %12 = load ptr, ptr %4, align 8
  call void @_ZNK2cv18SimpleBlobDetector6Params5writeERNS_11FileStorageE(ptr noundef nonnull align 8 dereferenceable(77) %11, ptr noundef nonnull align 8 dereferenceable(64) %12)
  ret void
}

; Function Attrs: uwtable
define void @_ZTv0_n40_NK2cv22SimpleBlobDetectorImpl5writeERNS_11FileStorageE(ptr noundef %0, ptr noundef nonnull align 8 dereferenceable(64) %1) unnamed_addr #0 align 2 {
  %3 = alloca ptr, align 8
  %4 = alloca ptr, align 8
  store ptr %0, ptr %3, align 8
  store ptr %1, ptr %4, align 8
  %5 = load ptr, ptr %3, align 8
  %6 = load ptr, ptr %5, align 8
  %7 = getelementptr inbounds i8, ptr %6, i64 -40
  %8 = load i64, ptr %7, align 8
  %9 = getelementptr inbounds i8, ptr %5, i64 %8
  %10 = load ptr, ptr %4, align 8
  tail call void @_ZNK2cv22SimpleBlobDetectorImpl5writeERNS_11FileStorageE(ptr noundef nonnull align 8 dereferenceable(112) %9, ptr noundef nonnull align 8 dereferenceable(64) %10)
  ret void
}