; Function Attrs: uwtable
define void @_ZTv0_n40_NK2cv22SimpleBlobDetectorImpl5writeERNS_11FileStorageE(ptr noundef %0, ptr noundef nonnull align 8 dereferenceable(64) %1) unnamed_addr #9 align 2 {
  %3 = load ptr, ptr %0, align 8
  %4 = getelementptr inbounds i8, ptr %3, i64 -40
  %5 = load i64, ptr %4, align 8
  %6 = getelementptr inbounds i8, ptr %0, i64 %5
  %7 = load ptr, ptr %6, align 8
  %8 = getelementptr i8, ptr %7, i64 -80
  %9 = load i64, ptr %8, align 8
  %10 = getelementptr inbounds i8, ptr %6, i64 %9
  tail call void @_ZNK2cv9Algorithm11writeFormatERNS_11FileStorageE(ptr noundef nonnull align 8 dereferenceable(8) %10, ptr noundef nonnull align 8 dereferenceable(64) %1)
  %11 = getelementptr inbounds i8, ptr %6, i64 8
  tail call void @_ZNK2cv18SimpleBlobDetector6Params5writeERNS_11FileStorageE(ptr noundef nonnull align 8 dereferenceable(77) %11, ptr noundef nonnull align 8 dereferenceable(64) %1)
  ret void
}